target datalayout = "e-m:e-p270:32:32-p271:32:32-p272:64:64-i64:64-i128:128-f80:128-n8:16:32:64-S128"
target triple = "x86_64-pc-linux-gnu"

%struct.strbuf = type { i64, i64, ptr }

@__const.die_upon_dubious_ownership.report = private unnamed_addr constant %struct.strbuf { i64 0, i64 0, ptr @strbuf_slopbuf }, align 8
@__const.die_upon_dubious_ownership.quoted = private unnamed_addr constant %struct.strbuf { i64 0, i64 0, ptr @strbuf_slopbuf }, align 8
@.str.43 = private unnamed_addr constant [143 x i8] c"detected dubious ownership in repository at '%s'\0A%sTo add an exception for this directory, call:\0A\0A\09git config --global --add safe.directory %s\00", align 1

; Function Attrs: nounwind uwtable
define dso_local void @die_upon_dubious_ownership(ptr noundef %0, ptr noundef %1, ptr noundef %2) #0 {
  %4 = alloca ptr, align 8
  %5 = alloca ptr, align 8
  %6 = alloca ptr, align 8
  %7 = alloca %struct.strbuf, align 8
  %8 = alloca %struct.strbuf, align 8
  %9 = alloca ptr, align 8
  store ptr %0, ptr %4, align 8, !tbaa !4
  store ptr %1, ptr %5, align 8, !tbaa !4
  store ptr %2, ptr %6, align 8, !tbaa !4
  call void @llvm.lifetime.start.p0(i64 24, ptr %7) #13
  call void @llvm.memcpy.p0.p0.i64(ptr align 8 %7, ptr align 8 @__const.die_upon_dubious_ownership.report, i64 24, i1 false)
  call void @llvm.lifetime.start.p0(i64 24, ptr %8) #13
  call void @llvm.memcpy.p0.p0.i64(ptr align 8 %8, ptr align 8 @__const.die_upon_dubious_ownership.quoted, i64 24, i1 false)
  call void @llvm.lifetime.start.p0(i64 8, ptr %9) #13
  %10 = load ptr, ptr %4, align 8, !tbaa !4
  %11 = load ptr, ptr %5, align 8, !tbaa !4
  %12 = load ptr, ptr %6, align 8, !tbaa !4
  %13 = call i32 @ensure_valid_ownership(ptr noundef %10, ptr noundef %11, ptr noundef %12, ptr noundef %7)
  %14 = icmp ne i32 %13, 0
  br i1 %14, label %15, label %16

15:                                               ; preds = %3
  call void @llvm.lifetime.end.p0(i64 8, ptr %9) #13
  call void @llvm.lifetime.end.p0(i64 24, ptr %8) #13
  call void @llvm.lifetime.end.p0(i64 24, ptr %7) #13
  ret void

16:                                               ; preds = %3
  call void @strbuf_complete(ptr noundef %7, i8 noundef signext 10)
  %17 = load ptr, ptr %4, align 8, !tbaa !4
  %18 = icmp ne ptr %17, null
  br i1 %18, label %19, label %21

19:                                               ; preds = %16
  %20 = load ptr, ptr %4, align 8, !tbaa !4
  br label %23

21:                                               ; preds = %16
  %22 = load ptr, ptr %6, align 8, !tbaa !4
  br label %23

23:                                               ; preds = %21, %19
  %24 = phi ptr [ %20, %19 ], [ %22, %21 ]
  store ptr %24, ptr %9, align 8, !tbaa !4
  %25 = load ptr, ptr %9, align 8, !tbaa !4
  call void @sq_quote_buf_pretty(ptr noundef %8, ptr noundef %25)
  %26 = call ptr @_(ptr noundef @.str.43)
  %27 = load ptr, ptr %9, align 8, !tbaa !4
  %28 = getelementptr inbounds nuw %struct.strbuf, ptr %7, i32 0, i32 2
  %29 = load ptr, ptr %28, align 8, !tbaa !18
  %30 = getelementptr inbounds nuw %struct.strbuf, ptr %8, i32 0, i32 2
  %31 = load ptr, ptr %30, align 8, !tbaa !18
  call void (ptr, ...) @die(ptr noundef %26, ptr noundef %27, ptr noundef %29, ptr noundef %31) #15
  unreachable
}