; Function Attrs: nounwind uwtable
define dso_local void @die_upon_dubious_ownership(ptr noundef %0, ptr noundef %1, ptr noundef %2) local_unnamed_addr #0 {
  %4 = alloca %struct.strbuf, align 8
  %5 = alloca %struct.strbuf, align 8
  call void @llvm.lifetime.start.p0(i64 24, ptr nonnull %4) #25
  call void @llvm.memcpy.p0.p0.i64(ptr noundef nonnull align 8 dereferenceable(24) %4, ptr noundef nonnull align 8 dereferenceable(24) @__const.create_object_directory.path, i64 24, i1 false)
  call void @llvm.lifetime.start.p0(i64 24, ptr nonnull %5) #25
  call void @llvm.memcpy.p0.p0.i64(ptr noundef nonnull align 8 dereferenceable(24) %5, ptr noundef nonnull align 8 dereferenceable(24) @__const.create_object_directory.path, i64 24, i1 false)
  %6 = tail call fastcc i32 @ensure_valid_ownership(ptr noundef %0, ptr noundef %1, ptr noundef %2)
  %.not = icmp eq i32 %6, 0
  br i1 %.not, label %8, label %7

7:                                                ; preds = %3
  call void @llvm.lifetime.end.p0(i64 24, ptr nonnull %5) #25
  call void @llvm.lifetime.end.p0(i64 24, ptr nonnull %4) #25
  ret void

8:                                                ; preds = %3
  call fastcc void @strbuf_complete(ptr noundef nonnull %4, i8 noundef signext 10)
  %.not8 = icmp eq ptr %0, null
  %9 = select i1 %.not8, ptr %2, ptr %0
  call void @sq_quote_buf_pretty(ptr noundef nonnull %5, ptr noundef %9) #25
  %10 = call fastcc ptr @_(ptr noundef nonnull @.str.43)
  %11 = getelementptr inbounds nuw i8, ptr %4, i64 16
  %12 = load ptr, ptr %11, align 8, !tbaa !14
  %13 = getelementptr inbounds nuw i8, ptr %5, i64 16
  %14 = load ptr, ptr %13, align 8, !tbaa !14
  call void (ptr, ...) @die(ptr noundef %10, ptr noundef %9, ptr noundef %12, ptr noundef %14) #26
  unreachable
}